; Function Attrs: nounwind uwtable
define noalias nonnull ptr @l_Lean_Widget_ppExprTagged___lambda__2(ptr noundef %0, ptr noundef readnone captures(none) %1, ptr noundef readnone captures(none) %2, ptr noundef readnone captures(none) %3, ptr noundef readnone captures(none) %4, ptr noundef %5) local_unnamed_addr #1 {
  %7 = tail call ptr @lean_expr_dbg_to_string(ptr noundef %0) #8
  tail call void @lean_inc_heartbeat() #8
  %8 = tail call noalias ptr @mi_malloc_small(i64 noundef 16) #8
  %9 = icmp eq ptr %8, null
  br i1 %9, label %10, label %lean_alloc_ctor.exit

10:                                               ; preds = %6
  tail call void @lean_internal_panic_out_of_memory() #9
  unreachable

lean_alloc_ctor.exit:                             ; preds = %6
  %11 = getelementptr inbounds nuw i8, ptr %8, i64 4
  store i32 1, ptr %8, align 4, !tbaa !4
  store i32 65552, ptr %11, align 4
  %12 = getelementptr inbounds nuw i8, ptr %8, i64 8
  store ptr %7, ptr %12, align 8, !tbaa !10
  tail call void @lean_inc_heartbeat() #8
  %13 = tail call noalias ptr @mi_malloc_small(i64 noundef 24) #8
  %14 = icmp eq ptr %13, null
  br i1 %14, label %15, label %lean_alloc_ctor.exit8

15:                                               ; preds = %lean_alloc_ctor.exit
  tail call void @lean_internal_panic_out_of_memory() #9
  unreachable

lean_alloc_ctor.exit8:                            ; preds = %lean_alloc_ctor.exit
  %16 = getelementptr inbounds nuw i8, ptr %13, i64 4
  store i32 1, ptr %13, align 4, !tbaa !4
  store i32 131096, ptr %16, align 4
  %17 = getelementptr inbounds nuw i8, ptr %13, i64 8
  store ptr %8, ptr %17, align 8, !tbaa !10
  %18 = getelementptr inbounds nuw i8, ptr %13, i64 16
  store ptr %5, ptr %18, align 8, !tbaa !10
  ret ptr %13
}